; Function Attrs: mustprogress uwtable
define noundef zeroext i1 @_ZN9benchmark15ConsoleReporter13ReportContextERKNS_17BenchmarkReporter7ContextE(ptr noundef nonnull align 8 dereferenceable(89) initializes((32, 40), (88, 89)) %0, ptr noundef nonnull align 8 dereferenceable(24) %1) unnamed_addr #3 align 2 personality ptr @__gxx_personality_v0 {
  %3 = getelementptr inbounds nuw i8, ptr %1, i64 16
  %4 = load i64, ptr %3, align 8, !tbaa !3
  %5 = getelementptr inbounds nuw i8, ptr %0, i64 32
  store i64 %4, ptr %5, align 8, !tbaa !11
  %6 = getelementptr inbounds nuw i8, ptr %0, i64 88
  store i8 0, ptr %6, align 8, !tbaa !26
  %7 = getelementptr inbounds nuw i8, ptr %0, i64 40
  %8 = getelementptr inbounds nuw i8, ptr %0, i64 56
  %9 = load ptr, ptr %8, align 8, !tbaa !27
  invoke void @_ZNSt8_Rb_treeINSt7__cxx1112basic_stringIcSt11char_traitsIcESaIcEEESt4pairIKS5_N9benchmark7CounterEESt10_Select1stISA_ESt4lessIS5_ESaISA_EE8_M_eraseEPSt13_Rb_tree_nodeISA_E(ptr noundef nonnull align 8 dereferenceable(48) %7, ptr noundef %9)
          to label %_ZNSt3mapINSt7__cxx1112basic_stringIcSt11char_traitsIcESaIcEEEN9benchmark7CounterESt4lessIS5_ESaISt4pairIKS5_S7_EEE5clearEv.exit unwind label %10

10:                                               ; preds = %2
  %11 = landingpad { ptr, i32 }
          catch ptr null
  %12 = extractvalue { ptr, i32 } %11, 0
  tail call void @__clang_call_terminate(ptr %12) #20
  unreachable

_ZNSt3mapINSt7__cxx1112basic_stringIcSt11char_traitsIcESaIcEEEN9benchmark7CounterESt4lessIS5_ESaISt4pairIKS5_S7_EEE5clearEv.exit: ; preds = %2
  %13 = getelementptr inbounds nuw i8, ptr %0, i64 48
  store ptr null, ptr %8, align 8, !tbaa !27
  %14 = getelementptr inbounds nuw i8, ptr %0, i64 64
  store ptr %13, ptr %14, align 8, !tbaa !28
  %15 = getelementptr inbounds nuw i8, ptr %0, i64 72
  store ptr %13, ptr %15, align 8, !tbaa !29
  %16 = getelementptr inbounds nuw i8, ptr %0, i64 80
  store i64 0, ptr %16, align 8, !tbaa !30
  %17 = getelementptr inbounds nuw i8, ptr %0, i64 16
  %18 = load ptr, ptr %17, align 8, !tbaa !31
  tail call void @_ZN9benchmark17BenchmarkReporter17PrintBasicContextEPSoRKNS0_7ContextE(ptr noundef nonnull %18, ptr noundef nonnull align 8 dereferenceable(24) %1)
  ret i1 true
}